; Function Attrs: mustprogress nofree norecurse nosync nounwind willreturn memory(argmem: write) uwtable
define dso_local void @_ZN10cmCPackLogC2Ev(ptr noundef nonnull align 8 dereferenceable(232) initializes((0, 8)) %0) unnamed_addr #3 align 2 personality ptr @__gxx_personality_v0 {
  store i8 0, ptr %0, align 8, !tbaa !4
  %2 = getelementptr inbounds nuw i8, ptr %0, i64 1
  store i8 0, ptr %2, align 1, !tbaa !22
  %3 = getelementptr inbounds nuw i8, ptr %0, i64 2
  store i8 0, ptr %3, align 2, !tbaa !23
  %4 = getelementptr inbounds nuw i8, ptr %0, i64 3
  store i8 1, ptr %4, align 1, !tbaa !24
  %5 = getelementptr inbounds nuw i8, ptr %0, i64 4
  store i32 0, ptr %5, align 4, !tbaa !25
  %6 = getelementptr inbounds nuw i8, ptr %0, i64 8
  %7 = getelementptr inbounds nuw i8, ptr %0, i64 24
  store ptr %7, ptr %6, align 8, !tbaa !26
  %8 = getelementptr inbounds nuw i8, ptr %0, i64 16
  store i64 0, ptr %8, align 8, !tbaa !27
  store i8 0, ptr %7, align 8, !tbaa !28
  %9 = getelementptr inbounds nuw i8, ptr %0, i64 40
  %10 = getelementptr inbounds nuw i8, ptr %0, i64 56
  store ptr %10, ptr %9, align 8, !tbaa !26
  %11 = getelementptr inbounds nuw i8, ptr %0, i64 48
  store i64 0, ptr %11, align 8, !tbaa !27
  store i8 0, ptr %10, align 8, !tbaa !28
  %12 = getelementptr inbounds nuw i8, ptr %0, i64 72
  %13 = getelementptr inbounds nuw i8, ptr %0, i64 88
  store ptr %13, ptr %12, align 8, !tbaa !26
  %14 = getelementptr inbounds nuw i8, ptr %0, i64 80
  store i64 0, ptr %14, align 8, !tbaa !27
  store i8 0, ptr %13, align 8, !tbaa !28
  %15 = getelementptr inbounds nuw i8, ptr %0, i64 104
  %16 = getelementptr inbounds nuw i8, ptr %0, i64 120
  store ptr %16, ptr %15, align 8, !tbaa !26
  %17 = getelementptr inbounds nuw i8, ptr %0, i64 112
  store i64 0, ptr %17, align 8, !tbaa !27
  store i8 0, ptr %16, align 8, !tbaa !28
  %18 = getelementptr inbounds nuw i8, ptr %0, i64 136
  %19 = getelementptr inbounds nuw i8, ptr %0, i64 152
  store ptr %19, ptr %18, align 8, !tbaa !26
  %20 = getelementptr inbounds nuw i8, ptr %0, i64 144
  store i64 0, ptr %20, align 8, !tbaa !27
  store i8 0, ptr %19, align 8, !tbaa !28
  %21 = getelementptr inbounds nuw i8, ptr %0, i64 168
  %22 = getelementptr inbounds nuw i8, ptr %0, i64 184
  store ptr %22, ptr %21, align 8, !tbaa !26
  %23 = getelementptr inbounds nuw i8, ptr %0, i64 176
  store i64 0, ptr %23, align 8, !tbaa !27
  store i8 0, ptr %22, align 8, !tbaa !28
  %24 = getelementptr inbounds nuw i8, ptr %0, i64 200
  %25 = getelementptr inbounds nuw i8, ptr %0, i64 208
  %26 = getelementptr inbounds nuw i8, ptr %0, i64 216
  tail call void @llvm.memset.p0.i64(ptr noundef nonnull align 8 dereferenceable(16) %26, i8 0, i64 16, i1 false)
  store ptr @_ZSt4cout, ptr %24, align 8, !tbaa !29
  store ptr @_ZSt4cerr, ptr %25, align 8, !tbaa !30
  ret void
}